target datalayout = "e-m:e-p270:32:32-p271:32:32-p272:64:64-i64:64-i128:128-f80:128-n8:16:32:64-S128"
target triple = "x86_64-pc-linux-gnu"

%struct.SupportRequestSelectivity = type { i32, ptr, i32, ptr, i32, i8, i32, i32, ptr, double }

@.str.1 = private unnamed_addr constant [10 x i8] c"plancat.c\00", align 1
@.str.11 = private unnamed_addr constant [33 x i8] c"invalid function selectivity: %f\00", align 1
@__func__.function_selectivity = private unnamed_addr constant [21 x i8] c"function_selectivity\00", align 1

; Function Attrs: inlinehint nounwind uwtable
define internal ptr @DatumGetPointer(i64 noundef %0) #4 {
  %2 = alloca i64, align 8
  store i64 %0, ptr %2, align 8
  %3 = load i64, ptr %2, align 8
  %4 = inttoptr i64 %3 to ptr
  ret ptr %4
}

; Function Attrs: inlinehint nounwind uwtable
define internal i64 @PointerGetDatum(ptr noundef %0) #4 {
  %2 = alloca ptr, align 8
  store ptr %0, ptr %2, align 8
  %3 = load ptr, ptr %2, align 8
  %4 = ptrtoint ptr %3 to i64
  ret i64 %4
}

; Function Attrs: nounwind uwtable
define dso_local double @function_selectivity(ptr noundef %0, i32 noundef %1, ptr noundef %2, i32 noundef %3, i1 noundef zeroext %4, i32 noundef %5, i32 noundef %6, ptr noundef %7) #0 {
  %9 = alloca double, align 8
  %10 = alloca ptr, align 8
  %11 = alloca i32, align 4
  %12 = alloca ptr, align 8
  %13 = alloca i32, align 4
  %14 = alloca i8, align 1
  %15 = alloca i32, align 4
  %16 = alloca i32, align 4
  %17 = alloca ptr, align 8
  %18 = alloca i32, align 4
  %19 = alloca %struct.SupportRequestSelectivity, align 8
  %20 = alloca ptr, align 8
  %21 = alloca i32, align 4
  store ptr %0, ptr %10, align 8
  store i32 %1, ptr %11, align 4
  store ptr %2, ptr %12, align 8
  store i32 %3, ptr %13, align 4
  %22 = zext i1 %4 to i8
  store i8 %22, ptr %14, align 1
  store i32 %5, ptr %15, align 4
  store i32 %6, ptr %16, align 4
  store ptr %7, ptr %17, align 8
  call void @llvm.lifetime.start.p0(i64 4, ptr %18) #10
  %23 = load i32, ptr %11, align 4
  %24 = call i32 @get_func_support(i32 noundef %23)
  store i32 %24, ptr %18, align 4
  call void @llvm.lifetime.start.p0(i64 64, ptr %19) #10
  call void @llvm.lifetime.start.p0(i64 8, ptr %20) #10
  %25 = load i32, ptr %18, align 4
  %26 = icmp ne i32 %25, 0
  br i1 %26, label %28, label %27

27:                                               ; preds = %8
  store double 0x3FD55555318ABC87, ptr %9, align 8
  store i32 1, ptr %21, align 4
  br label %80

28:                                               ; preds = %8
  %29 = getelementptr inbounds nuw %struct.SupportRequestSelectivity, ptr %19, i32 0, i32 0
  store i32 457, ptr %29, align 8
  %30 = load ptr, ptr %10, align 8
  %31 = getelementptr inbounds nuw %struct.SupportRequestSelectivity, ptr %19, i32 0, i32 1
  store ptr %30, ptr %31, align 8
  %32 = load i32, ptr %11, align 4
  %33 = getelementptr inbounds nuw %struct.SupportRequestSelectivity, ptr %19, i32 0, i32 2
  store i32 %32, ptr %33, align 8
  %34 = load ptr, ptr %12, align 8
  %35 = getelementptr inbounds nuw %struct.SupportRequestSelectivity, ptr %19, i32 0, i32 3
  store ptr %34, ptr %35, align 8
  %36 = load i32, ptr %13, align 4
  %37 = getelementptr inbounds nuw %struct.SupportRequestSelectivity, ptr %19, i32 0, i32 4
  store i32 %36, ptr %37, align 8
  %38 = load i8, ptr %14, align 1, !range !4, !noundef !5
  %39 = trunc i8 %38 to i1
  %40 = getelementptr inbounds nuw %struct.SupportRequestSelectivity, ptr %19, i32 0, i32 5
  %41 = zext i1 %39 to i8
  store i8 %41, ptr %40, align 4
  %42 = load i32, ptr %15, align 4
  %43 = getelementptr inbounds nuw %struct.SupportRequestSelectivity, ptr %19, i32 0, i32 6
  store i32 %42, ptr %43, align 8
  %44 = load i32, ptr %16, align 4
  %45 = getelementptr inbounds nuw %struct.SupportRequestSelectivity, ptr %19, i32 0, i32 7
  store i32 %44, ptr %45, align 4
  %46 = load ptr, ptr %17, align 8
  %47 = getelementptr inbounds nuw %struct.SupportRequestSelectivity, ptr %19, i32 0, i32 8
  store ptr %46, ptr %47, align 8
  %48 = getelementptr inbounds nuw %struct.SupportRequestSelectivity, ptr %19, i32 0, i32 9
  store double -1.000000e+00, ptr %48, align 8
  %49 = load i32, ptr %18, align 4
  %50 = call i64 @PointerGetDatum(ptr noundef %19)
  %51 = call i64 @OidFunctionCall1Coll(i32 noundef %49, i32 noundef 0, i64 noundef %50)
  %52 = call ptr @DatumGetPointer(i64 noundef %51)
  store ptr %52, ptr %20, align 8
  %53 = load ptr, ptr %20, align 8
  %54 = icmp ne ptr %53, %19
  br i1 %54, label %55, label %56

55:                                               ; preds = %28
  store double 0x3FD55555318ABC87, ptr %9, align 8
  store i32 1, ptr %21, align 4
  br label %80

56:                                               ; preds = %28
  %57 = getelementptr inbounds nuw %struct.SupportRequestSelectivity, ptr %19, i32 0, i32 9
  %58 = load double, ptr %57, align 8
  %59 = fcmp olt double %58, 0.000000e+00
  br i1 %59, label %64, label %60

60:                                               ; preds = %56
  %61 = getelementptr inbounds nuw %struct.SupportRequestSelectivity, ptr %19, i32 0, i32 9
  %62 = load double, ptr %61, align 8
  %63 = fcmp ogt double %62, 1.000000e+00
  br i1 %63, label %64, label %77

64:                                               ; preds = %60, %56
  br label %65

65:                                               ; preds = %64
  br i1 true, label %66, label %68

66:                                               ; preds = %65
  %67 = call zeroext i1 @errstart_cold(i32 noundef 21, ptr noundef null) #11
  br i1 %67, label %70, label %74

68:                                               ; preds = %65
  %69 = call zeroext i1 @errstart(i32 noundef 21, ptr noundef null)
  br i1 %69, label %70, label %74

70:                                               ; preds = %68, %66
  %71 = getelementptr inbounds nuw %struct.SupportRequestSelectivity, ptr %19, i32 0, i32 9
  %72 = load double, ptr %71, align 8
  %73 = call i32 (ptr, ...) @errmsg_internal(ptr noundef @.str.11, double noundef %72)
  call void @errfinish(ptr noundef @.str.1, i32 noundef 2090, ptr noundef @__func__.function_selectivity)
  br label %74

74:                                               ; preds = %70, %68, %66
  unreachable

75:                                               ; No predecessors!
  br label %76

76:                                               ; preds = %75
  br label %77

77:                                               ; preds = %76, %60
  %78 = getelementptr inbounds nuw %struct.SupportRequestSelectivity, ptr %19, i32 0, i32 9
  %79 = load double, ptr %78, align 8
  store double %79, ptr %9, align 8
  store i32 1, ptr %21, align 4
  br label %80

80:                                               ; preds = %77, %55, %27
  call void @llvm.lifetime.end.p0(i64 8, ptr %20) #10
  call void @llvm.lifetime.end.p0(i64 64, ptr %19) #10
  call void @llvm.lifetime.end.p0(i64 4, ptr %18) #10
  %81 = load double, ptr %9, align 8
  ret double %81
}