; Function Attrs: nounwind uwtable
define dso_local double @function_selectivity(ptr noundef %0, i32 noundef %1, ptr noundef %2, i32 noundef %3, i1 noundef zeroext %4, i32 noundef %5, i32 noundef %6, ptr noundef %7) local_unnamed_addr #0 {
  %9 = alloca %struct.SupportRequestSelectivity, align 8
  %10 = tail call i32 @get_func_support(i32 noundef %1) #10
  call void @llvm.lifetime.start.p0(i64 64, ptr nonnull %9) #10
  %.not = icmp eq i32 %10, 0
  br i1 %.not, label %33, label %11

11:                                               ; preds = %8
  %12 = zext i1 %4 to i8
  store i32 457, ptr %9, align 8
  %13 = getelementptr inbounds nuw i8, ptr %9, i64 8
  store ptr %0, ptr %13, align 8
  %14 = getelementptr inbounds nuw i8, ptr %9, i64 16
  store i32 %1, ptr %14, align 8
  %15 = getelementptr inbounds nuw i8, ptr %9, i64 24
  store ptr %2, ptr %15, align 8
  %16 = getelementptr inbounds nuw i8, ptr %9, i64 32
  store i32 %3, ptr %16, align 8
  %17 = getelementptr inbounds nuw i8, ptr %9, i64 36
  store i8 %12, ptr %17, align 4
  %18 = getelementptr inbounds nuw i8, ptr %9, i64 40
  store i32 %5, ptr %18, align 8
  %19 = getelementptr inbounds nuw i8, ptr %9, i64 44
  store i32 %6, ptr %19, align 4
  %20 = getelementptr inbounds nuw i8, ptr %9, i64 48
  store ptr %7, ptr %20, align 8
  %21 = getelementptr inbounds nuw i8, ptr %9, i64 56
  store double -1.000000e+00, ptr %21, align 8
  %22 = ptrtoint ptr %9 to i64
  %23 = call i64 @OidFunctionCall1Coll(i32 noundef %10, i32 noundef 0, i64 noundef %22) #10
  %24 = inttoptr i64 %23 to ptr
  %.not16 = icmp eq ptr %9, %24
  br i1 %.not16, label %25, label %33

25:                                               ; preds = %11
  %26 = load double, ptr %21, align 8
  %27 = fcmp olt double %26, 0.000000e+00
  %28 = fcmp ogt double %26, 1.000000e+00
  %or.cond = or i1 %27, %28
  br i1 %or.cond, label %29, label %33

29:                                               ; preds = %25
  %30 = call zeroext i1 @errstart_cold(i32 noundef 21, ptr noundef null) #11
  call void @llvm.assume(i1 %30)
  %31 = load double, ptr %21, align 8
  %32 = call i32 (ptr, ...) @errmsg_internal(ptr noundef nonnull @.str.11, double noundef %31) #10
  call void @errfinish(ptr noundef nonnull @.str.1, i32 noundef 2090, ptr noundef nonnull @__func__.function_selectivity) #10
  unreachable

33:                                               ; preds = %25, %11, %8
  %.0 = phi double [ 0x3FD55555318ABC87, %8 ], [ 0x3FD55555318ABC87, %11 ], [ %26, %25 ]
  call void @llvm.lifetime.end.p0(i64 64, ptr nonnull %9) #10
  ret double %.0
}